; Function Attrs: nounwind uwtable
define noalias nonnull ptr @l_Lake_ExternLib_staticBuildKey(ptr noundef readonly captures(none) %0) local_unnamed_addr #0 {
  %2 = getelementptr inbounds nuw i8, ptr %0, i64 8
  %3 = load ptr, ptr %2, align 8, !tbaa !4
  %4 = getelementptr inbounds nuw i8, ptr %0, i64 16
  %5 = load ptr, ptr %4, align 8, !tbaa !4
  %6 = getelementptr inbounds nuw i8, ptr %3, i64 8
  %7 = load ptr, ptr %6, align 8, !tbaa !4
  %8 = ptrtoint ptr %5 to i64
  %9 = and i64 %8, 1
  %.not = icmp eq i64 %9, 0
  br i1 %.not, label %10, label %lean_inc.exit14

10:                                               ; preds = %1
  %.val.i = load i32, ptr %5, align 4, !tbaa !8
  %11 = icmp sgt i32 %.val.i, 0
  br i1 %11, label %12, label %14, !prof !11

12:                                               ; preds = %10
  %13 = add nuw i32 %.val.i, 1
  store i32 %13, ptr %5, align 4, !tbaa !8
  br label %lean_inc.exit14

14:                                               ; preds = %10
  %.not.i = icmp eq i32 %.val.i, 0
  br i1 %.not.i, label %lean_inc.exit14, label %15

15:                                               ; preds = %14
  tail call void @lean_inc_ref_cold(ptr noundef nonnull %5) #3
  br label %lean_inc.exit14

lean_inc.exit14:                                  ; preds = %15, %14, %12, %1
  %16 = ptrtoint ptr %7 to i64
  %17 = and i64 %16, 1
  %.not19 = icmp eq i64 %17, 0
  br i1 %.not19, label %18, label %lean_inc.exit

18:                                               ; preds = %lean_inc.exit14
  %.val.i15 = load i32, ptr %7, align 4, !tbaa !8
  %19 = icmp sgt i32 %.val.i15, 0
  br i1 %19, label %20, label %22, !prof !11

20:                                               ; preds = %18
  %21 = add nuw i32 %.val.i15, 1
  store i32 %21, ptr %7, align 4, !tbaa !8
  br label %lean_inc.exit

22:                                               ; preds = %18
  %.not.i16 = icmp eq i32 %.val.i15, 0
  br i1 %.not.i16, label %lean_inc.exit, label %23

23:                                               ; preds = %22
  tail call void @lean_inc_ref_cold(ptr noundef nonnull %7) #3
  br label %lean_inc.exit

lean_inc.exit:                                    ; preds = %23, %22, %20, %lean_inc.exit14
  tail call void @lean_inc_heartbeat() #3
  %24 = tail call noalias ptr @mi_malloc_small(i64 noundef 24) #3
  %25 = icmp eq ptr %24, null
  br i1 %25, label %26, label %lean_alloc_ctor.exit

26:                                               ; preds = %lean_inc.exit
  tail call void @lean_internal_panic_out_of_memory() #4
  unreachable

lean_alloc_ctor.exit:                             ; preds = %lean_inc.exit
  %27 = getelementptr inbounds nuw i8, ptr %24, i64 4
  store i32 1, ptr %24, align 4, !tbaa !8
  store i32 33685528, ptr %27, align 4
  %28 = getelementptr inbounds nuw i8, ptr %24, i64 8
  store ptr %7, ptr %28, align 8, !tbaa !4
  %29 = getelementptr inbounds nuw i8, ptr %24, i64 16
  store ptr %5, ptr %29, align 8, !tbaa !4
  %30 = load ptr, ptr @l_Lake_ExternLib_staticFacet, align 8, !tbaa !4
  tail call void @lean_inc_heartbeat() #3
  %31 = tail call noalias ptr @mi_malloc_small(i64 noundef 24) #3
  %32 = icmp eq ptr %31, null
  br i1 %32, label %33, label %lean_alloc_ctor.exit18

33:                                               ; preds = %lean_alloc_ctor.exit
  tail call void @lean_internal_panic_out_of_memory() #4
  unreachable

lean_alloc_ctor.exit18:                           ; preds = %lean_alloc_ctor.exit
  %34 = getelementptr inbounds nuw i8, ptr %31, i64 4
  store i32 1, ptr %31, align 4, !tbaa !8
  store i32 50462744, ptr %34, align 4
  %35 = getelementptr inbounds nuw i8, ptr %31, i64 8
  store ptr %24, ptr %35, align 8, !tbaa !4
  %36 = getelementptr inbounds nuw i8, ptr %31, i64 16
  store ptr %30, ptr %36, align 8, !tbaa !4
  ret ptr %31
}